; Function Attrs: mustprogress nofree norecurse nosync nounwind willreturn memory(argmem: readwrite) uwtable
define internal nonnull ptr @Pack3Bytes(ptr nocapture readnone %0, ptr nocapture noundef readonly %1, ptr noundef writeonly %2, i32 %3) #3 {
  %5 = load i16, ptr %1, align 2
  %6 = zext i16 %5 to i32
  %7 = mul nuw i32 %6, 65281
  %8 = add nuw i32 %7, 8388608
  %9 = lshr i32 %8, 24
  %10 = trunc nuw i32 %9 to i8
  %11 = getelementptr inbounds i8, ptr %2, i64 1
  store i8 %10, ptr %2, align 1
  %12 = getelementptr inbounds i8, ptr %1, i64 2
  %13 = load i16, ptr %12, align 2
  %14 = zext i16 %13 to i32
  %15 = mul nuw i32 %14, 65281
  %16 = add nuw i32 %15, 8388608
  %17 = lshr i32 %16, 24
  %18 = trunc nuw i32 %17 to i8
  %19 = getelementptr inbounds i8, ptr %2, i64 2
  store i8 %18, ptr %11, align 1
  %20 = getelementptr inbounds i8, ptr %1, i64 4
  %21 = load i16, ptr %20, align 2
  %22 = zext i16 %21 to i32
  %23 = mul nuw i32 %22, 65281
  %24 = add nuw i32 %23, 8388608
  %25 = lshr i32 %24, 24
  %26 = trunc nuw i32 %25 to i8
  %27 = getelementptr inbounds i8, ptr %2, i64 3
  store i8 %26, ptr %19, align 1
  ret ptr %27
}